target datalayout = "e-m:e-p270:32:32-p271:32:32-p272:64:64-i64:64-i128:128-f80:128-n8:16:32:64-S128"
target triple = "x86_64-pc-linux-gnu"

%union.ListCell = type { ptr }

; Function Attrs: nounwind uwtable
define dso_local ptr @get_proposed_default_constraint(ptr noundef %0) #0 {
  %2 = alloca ptr, align 8
  %3 = alloca ptr, align 8
  %4 = alloca %union.ListCell, align 8
  store ptr %0, ptr %2, align 8
  call void @llvm.lifetime.start.p0(i64 8, ptr %3) #6
  %5 = load ptr, ptr %2, align 8
  %6 = call ptr @make_ands_explicit(ptr noundef %5)
  store ptr %6, ptr %3, align 8
  %7 = load ptr, ptr %3, align 8
  store ptr %7, ptr %4, align 8
  %8 = getelementptr inbounds nuw %union.ListCell, ptr %4, i32 0, i32 0
  %9 = load ptr, ptr %8, align 8
  %10 = call ptr @list_make1_impl(i32 noundef 1, ptr %9)
  %11 = call ptr @makeBoolExpr(i32 noundef 2, ptr noundef %10, i32 noundef -1)
  store ptr %11, ptr %3, align 8
  %12 = load ptr, ptr %3, align 8
  %13 = call ptr @eval_const_expressions(ptr noundef null, ptr noundef %12)
  store ptr %13, ptr %3, align 8
  %14 = load ptr, ptr %3, align 8
  %15 = call ptr @canonicalize_qual(ptr noundef %14, i1 noundef zeroext true)
  store ptr %15, ptr %3, align 8
  %16 = load ptr, ptr %3, align 8
  %17 = call ptr @make_ands_implicit(ptr noundef %16)
  call void @llvm.lifetime.end.p0(i64 8, ptr %3) #6
  ret ptr %17
}