; Function Attrs: nounwind uwtable
define dso_local ptr @get_proposed_default_constraint(ptr noundef %0) local_unnamed_addr #0 {
  %2 = tail call ptr @make_ands_explicit(ptr noundef %0) #5
  %3 = tail call ptr @list_make1_impl(i32 noundef 1, ptr %2) #5
  %4 = tail call ptr @makeBoolExpr(i32 noundef 2, ptr noundef %3, i32 noundef -1) #5
  %5 = tail call ptr @eval_const_expressions(ptr noundef null, ptr noundef %4) #5
  %6 = tail call ptr @canonicalize_qual(ptr noundef %5, i1 noundef zeroext true) #5
  %7 = tail call ptr @make_ands_implicit(ptr noundef %6) #5
  ret ptr %7
}